target datalayout = "e-m:e-p270:32:32-p271:32:32-p272:64:64-i64:64-i128:128-f80:128-n8:16:32:64-S128"
target triple = "x86_64-pc-linux-gnu"

%class.cmCursesWidget = type <{ ptr, i32, [4 x i8], %"class.std::__cxx11::basic_string", ptr, i32, [4 x i8] }>
%"class.std::__cxx11::basic_string" = type { %"struct.std::__cxx11::basic_string<char>::_Alloc_hider", i64, %union.anon }
%"struct.std::__cxx11::basic_string<char>::_Alloc_hider" = type { ptr }
%union.anon = type { i64, [8 x i8] }
%"class.std::allocator" = type { i8 }

@.str = private unnamed_addr constant [3 x i8] c"ON\00", align 1
@.str.1 = private unnamed_addr constant [4 x i8] c"OFF\00", align 1
@.str.2 = private unnamed_addr constant [50 x i8] c"basic_string: construction from null is not valid\00", align 1

; Function Attrs: mustprogress nounwind uwtable
define linkonce_odr dso_local noundef i64 @_ZNSt11char_traitsIcE6lengthEPKc(ptr noundef %0) #3 comdat align 2 {
  %2 = alloca ptr, align 8
  store ptr %0, ptr %2, align 8
  %3 = load ptr, ptr %2, align 8
  %4 = call i64 @strlen(ptr noundef %3) #7
  ret i64 %4
}

; Function Attrs: mustprogress nounwind uwtable
define linkonce_odr dso_local void @_ZNSt7__cxx1112basic_stringIcSt11char_traitsIcESaIcEE12_Alloc_hiderD2Ev(ptr noundef nonnull align 8 dereferenceable(8) %0) unnamed_addr #3 comdat align 2 {
  %2 = alloca ptr, align 8
  store ptr %0, ptr %2, align 8
  %3 = load ptr, ptr %2, align 8
  call void @_ZNSaIcED2Ev(ptr noundef nonnull align 1 dereferenceable(1) %3) #7
  ret void
}

; Function Attrs: mustprogress uwtable
define linkonce_odr dso_local void @_ZNSt7__cxx1112basic_stringIcSt11char_traitsIcESaIcEEC2IS3_EEPKcRKS3_(ptr noundef nonnull align 8 dereferenceable(32) %0, ptr noundef %1, ptr noundef nonnull align 1 dereferenceable(1) %2) unnamed_addr #0 comdat align 2 personality ptr @__gxx_personality_v0 {
  %4 = alloca ptr, align 8
  %5 = alloca ptr, align 8
  %6 = alloca ptr, align 8
  %7 = alloca ptr, align 8
  %8 = alloca i32, align 4
  %9 = alloca ptr, align 8
  store ptr %0, ptr %4, align 8
  store ptr %1, ptr %5, align 8
  store ptr %2, ptr %6, align 8
  %10 = load ptr, ptr %4, align 8
  %11 = getelementptr inbounds %"class.std::__cxx11::basic_string", ptr %10, i32 0, i32 0
  %12 = call noundef ptr @_ZNSt7__cxx1112basic_stringIcSt11char_traitsIcESaIcEE13_M_local_dataEv(ptr noundef nonnull align 8 dereferenceable(32) %10)
  %13 = load ptr, ptr %6, align 8
  call void @_ZNSt7__cxx1112basic_stringIcSt11char_traitsIcESaIcEE12_Alloc_hiderC1EPcRKS3_(ptr noundef nonnull align 8 dereferenceable(8) %11, ptr noundef %12, ptr noundef nonnull align 1 dereferenceable(1) %13)
  %14 = load ptr, ptr %5, align 8
  %15 = icmp eq ptr %14, null
  br i1 %15, label %16, label %22

16:                                               ; preds = %3
  invoke void @_ZSt19__throw_logic_errorPKc(ptr noundef @.str.2) #8
          to label %17 unwind label %18

17:                                               ; preds = %16
  unreachable

18:                                               ; preds = %26, %22, %16
  %19 = landingpad { ptr, i32 }
          cleanup
  %20 = extractvalue { ptr, i32 } %19, 0
  store ptr %20, ptr %7, align 8
  %21 = extractvalue { ptr, i32 } %19, 1
  store i32 %21, ptr %8, align 4
  call void @_ZNSt7__cxx1112basic_stringIcSt11char_traitsIcESaIcEE12_Alloc_hiderD2Ev(ptr noundef nonnull align 8 dereferenceable(8) %11) #7
  br label %31

22:                                               ; preds = %3
  %23 = load ptr, ptr %5, align 8
  %24 = load ptr, ptr %5, align 8
  %25 = invoke noundef i64 @_ZNSt11char_traitsIcE6lengthEPKc(ptr noundef %24)
          to label %26 unwind label %18

26:                                               ; preds = %22
  %27 = getelementptr inbounds i8, ptr %23, i64 %25
  store ptr %27, ptr %9, align 8
  %28 = load ptr, ptr %5, align 8
  %29 = load ptr, ptr %9, align 8
  invoke void @_ZNSt7__cxx1112basic_stringIcSt11char_traitsIcESaIcEE12_M_constructIPKcEEvT_S8_St20forward_iterator_tag(ptr noundef nonnull align 8 dereferenceable(32) %10, ptr noundef %28, ptr noundef %29)
          to label %30 unwind label %18

30:                                               ; preds = %26
  ret void

31:                                               ; preds = %18
  %32 = load ptr, ptr %7, align 8
  %33 = load i32, ptr %8, align 4
  %34 = insertvalue { ptr, i32 } poison, ptr %32, 0
  %35 = insertvalue { ptr, i32 } %34, i32 %33, 1
  resume { ptr, i32 } %35
}

; Function Attrs: mustprogress uwtable
define dso_local void @_ZN18cmCursesBoolWidget14SetValueAsBoolEb(ptr noundef nonnull align 8 dereferenceable(60) %0, i1 noundef zeroext %1) #0 align 2 personality ptr @__gxx_personality_v0 {
  %3 = alloca ptr, align 8
  %4 = alloca i8, align 1
  %5 = alloca %"class.std::__cxx11::basic_string", align 8
  %6 = alloca %"class.std::allocator", align 1
  %7 = alloca ptr, align 8
  %8 = alloca i32, align 4
  %9 = alloca %"class.std::__cxx11::basic_string", align 8
  %10 = alloca %"class.std::allocator", align 1
  store ptr %0, ptr %3, align 8
  %11 = zext i1 %1 to i8
  store i8 %11, ptr %4, align 1
  %12 = load ptr, ptr %3, align 8
  %13 = load i8, ptr %4, align 1
  %14 = trunc i8 %13 to i1
  br i1 %14, label %15, label %39

15:                                               ; preds = %2
  call void @_ZNSaIcEC1Ev(ptr noundef nonnull align 1 dereferenceable(1) %6) #7
  invoke void @_ZNSt7__cxx1112basic_stringIcSt11char_traitsIcESaIcEEC2IS3_EEPKcRKS3_(ptr noundef nonnull align 8 dereferenceable(32) %5, ptr noundef @.str, ptr noundef nonnull align 1 dereferenceable(1) %6)
          to label %16 unwind label %29

16:                                               ; preds = %15
  %17 = load ptr, ptr %12, align 8
  %18 = getelementptr inbounds ptr, ptr %17, i64 4
  %19 = load ptr, ptr %18, align 8
  invoke void %19(ptr noundef nonnull align 8 dereferenceable(60) %12, ptr noundef nonnull align 8 dereferenceable(32) %5)
          to label %20 unwind label %33

20:                                               ; preds = %16
  call void @_ZNSt7__cxx1112basic_stringIcSt11char_traitsIcESaIcEED1Ev(ptr noundef nonnull align 8 dereferenceable(32) %5) #7
  call void @_ZNSaIcED1Ev(ptr noundef nonnull align 1 dereferenceable(1) %6) #7
  %21 = call noundef zeroext i1 @_ZN13cmCursesColor9HasColorsEv()
  br i1 %21, label %22, label %38

22:                                               ; preds = %20
  %23 = getelementptr inbounds %class.cmCursesWidget, ptr %12, i32 0, i32 4
  %24 = load ptr, ptr %23, align 8
  %25 = call i32 @set_field_fore(ptr noundef %24, i32 noundef 512)
  %26 = getelementptr inbounds %class.cmCursesWidget, ptr %12, i32 0, i32 4
  %27 = load ptr, ptr %26, align 8
  %28 = call i32 @set_field_back(ptr noundef %27, i32 noundef 512)
  br label %38

29:                                               ; preds = %15
  %30 = landingpad { ptr, i32 }
          cleanup
  %31 = extractvalue { ptr, i32 } %30, 0
  store ptr %31, ptr %7, align 8
  %32 = extractvalue { ptr, i32 } %30, 1
  store i32 %32, ptr %8, align 4
  br label %37

33:                                               ; preds = %16
  %34 = landingpad { ptr, i32 }
          cleanup
  %35 = extractvalue { ptr, i32 } %34, 0
  store ptr %35, ptr %7, align 8
  %36 = extractvalue { ptr, i32 } %34, 1
  store i32 %36, ptr %8, align 4
  call void @_ZNSt7__cxx1112basic_stringIcSt11char_traitsIcESaIcEED1Ev(ptr noundef nonnull align 8 dereferenceable(32) %5) #7
  br label %37

37:                                               ; preds = %33, %29
  call void @_ZNSaIcED1Ev(ptr noundef nonnull align 1 dereferenceable(1) %6) #7
  br label %64

38:                                               ; preds = %22, %20
  br label %63

39:                                               ; preds = %2
  call void @_ZNSaIcEC1Ev(ptr noundef nonnull align 1 dereferenceable(1) %10) #7
  invoke void @_ZNSt7__cxx1112basic_stringIcSt11char_traitsIcESaIcEEC2IS3_EEPKcRKS3_(ptr noundef nonnull align 8 dereferenceable(32) %9, ptr noundef @.str.1, ptr noundef nonnull align 1 dereferenceable(1) %10)
          to label %40 unwind label %53

40:                                               ; preds = %39
  %41 = load ptr, ptr %12, align 8
  %42 = getelementptr inbounds ptr, ptr %41, i64 4
  %43 = load ptr, ptr %42, align 8
  invoke void %43(ptr noundef nonnull align 8 dereferenceable(60) %12, ptr noundef nonnull align 8 dereferenceable(32) %9)
          to label %44 unwind label %57

44:                                               ; preds = %40
  call void @_ZNSt7__cxx1112basic_stringIcSt11char_traitsIcESaIcEED1Ev(ptr noundef nonnull align 8 dereferenceable(32) %9) #7
  call void @_ZNSaIcED1Ev(ptr noundef nonnull align 1 dereferenceable(1) %10) #7
  %45 = call noundef zeroext i1 @_ZN13cmCursesColor9HasColorsEv()
  br i1 %45, label %46, label %62

46:                                               ; preds = %44
  %47 = getelementptr inbounds %class.cmCursesWidget, ptr %12, i32 0, i32 4
  %48 = load ptr, ptr %47, align 8
  %49 = call i32 @set_field_fore(ptr noundef %48, i32 noundef 256)
  %50 = getelementptr inbounds %class.cmCursesWidget, ptr %12, i32 0, i32 4
  %51 = load ptr, ptr %50, align 8
  %52 = call i32 @set_field_back(ptr noundef %51, i32 noundef 256)
  br label %62

53:                                               ; preds = %39
  %54 = landingpad { ptr, i32 }
          cleanup
  %55 = extractvalue { ptr, i32 } %54, 0
  store ptr %55, ptr %7, align 8
  %56 = extractvalue { ptr, i32 } %54, 1
  store i32 %56, ptr %8, align 4
  br label %61

57:                                               ; preds = %40
  %58 = landingpad { ptr, i32 }
          cleanup
  %59 = extractvalue { ptr, i32 } %58, 0
  store ptr %59, ptr %7, align 8
  %60 = extractvalue { ptr, i32 } %58, 1
  store i32 %60, ptr %8, align 4
  call void @_ZNSt7__cxx1112basic_stringIcSt11char_traitsIcESaIcEED1Ev(ptr noundef nonnull align 8 dereferenceable(32) %9) #7
  br label %61

61:                                               ; preds = %57, %53
  call void @_ZNSaIcED1Ev(ptr noundef nonnull align 1 dereferenceable(1) %10) #7
  br label %64

62:                                               ; preds = %46, %44
  br label %63

63:                                               ; preds = %62, %38
  ret void

64:                                               ; preds = %61, %37
  %65 = load ptr, ptr %7, align 8
  %66 = load i32, ptr %8, align 4
  %67 = insertvalue { ptr, i32 } poison, ptr %65, 0
  %68 = insertvalue { ptr, i32 } %67, i32 %66, 1
  resume { ptr, i32 } %68
}